target datalayout = "e-m:e-p270:32:32-p271:32:32-p272:64:64-i64:64-i128:128-f80:128-n8:16:32:64-S128"
target triple = "x86_64-pc-linux-gnu"

%struct.startup_info = type { i32, ptr, ptr }

@startup_info = external global ptr, align 8

; Function Attrs: nounwind uwtable
define dso_local i32 @has_object(ptr noundef %0, ptr noundef %1, i32 noundef %2) #0 {
  %4 = alloca i32, align 4
  %5 = alloca ptr, align 8
  %6 = alloca ptr, align 8
  %7 = alloca i32, align 4
  %8 = alloca i32, align 4
  %9 = alloca i32, align 4
  %10 = alloca i32, align 4
  store ptr %0, ptr %5, align 8, !tbaa !19
  store ptr %1, ptr %6, align 8, !tbaa !14
  store i32 %2, ptr %7, align 4, !tbaa !43
  call void @llvm.lifetime.start.p0(i64 4, ptr %8) #14
  %11 = load i32, ptr %7, align 4, !tbaa !43
  %12 = and i32 %11, 1
  %13 = icmp ne i32 %12, 0
  %14 = xor i1 %13, true
  %15 = zext i1 %14 to i32
  store i32 %15, ptr %8, align 4, !tbaa !43
  call void @llvm.lifetime.start.p0(i64 4, ptr %9) #14
  %16 = load i32, ptr %8, align 4, !tbaa !43
  %17 = icmp ne i32 %16, 0
  %18 = select i1 %17, i32 8, i32 0
  %19 = or i32 16, %18
  store i32 %19, ptr %9, align 4, !tbaa !43
  %20 = load ptr, ptr @startup_info, align 8, !tbaa !156
  %21 = getelementptr inbounds nuw %struct.startup_info, ptr %20, i32 0, i32 0
  %22 = load i32, ptr %21, align 8, !tbaa !158
  %23 = icmp ne i32 %22, 0
  br i1 %23, label %25, label %24

24:                                               ; preds = %3
  store i32 0, ptr %4, align 4
  store i32 1, ptr %10, align 4
  br label %32

25:                                               ; preds = %3
  %26 = load ptr, ptr %5, align 8, !tbaa !19
  %27 = load ptr, ptr %6, align 8, !tbaa !14
  %28 = load i32, ptr %9, align 4, !tbaa !43
  %29 = call i32 @oid_object_info_extended(ptr noundef %26, ptr noundef %27, ptr noundef null, i32 noundef %28)
  %30 = icmp sge i32 %29, 0
  %31 = zext i1 %30 to i32
  store i32 %31, ptr %4, align 4
  store i32 1, ptr %10, align 4
  br label %32

32:                                               ; preds = %25, %24
  call void @llvm.lifetime.end.p0(i64 4, ptr %9) #14
  call void @llvm.lifetime.end.p0(i64 4, ptr %8) #14
  %33 = load i32, ptr %4, align 4
  ret i32 %33
}