; Function Attrs: nounwind uwtable
define dso_local range(i32 0, 2) i32 @has_object(ptr noundef %0, ptr noundef %1, i32 noundef %2) local_unnamed_addr #1 {
  %4 = load ptr, ptr @startup_info, align 8, !tbaa !143
  %5 = load i32, ptr %4, align 8, !tbaa !145
  %.not = icmp eq i32 %5, 0
  br i1 %.not, label %13, label %6

6:                                                ; preds = %3
  %7 = shl i32 %2, 3
  %8 = and i32 %7, 8
  %9 = xor i32 %8, 24
  %10 = tail call i32 @oid_object_info_extended(ptr noundef %0, ptr noundef %1, ptr noundef null, i32 noundef %9)
  %11 = icmp sgt i32 %10, -1
  %12 = zext i1 %11 to i32
  br label %13

13:                                               ; preds = %3, %6
  %.0 = phi i32 [ %12, %6 ], [ 0, %3 ]
  ret i32 %.0
}